; Function Attrs: mustprogress nounwind uwtable
define dso_local void @_ZN4llvm17JSONScopedPrinterC2ERNS_11raw_ostreamEbOSt10unique_ptrINS_14DelimitedScopeESt14default_deleteIS4_EE(ptr noundef nonnull align 8 dereferenceable(312) initializes((0, 20), (24, 44)) %0, ptr noundef nonnull align 8 dereferenceable(48) %1, i1 noundef zeroext %2, ptr noundef nonnull align 8 captures(none) dereferenceable(8) %3) unnamed_addr #0 align 2 {
  %5 = getelementptr inbounds nuw i8, ptr %0, i64 8
  store ptr %1, ptr %5, align 8
  %6 = getelementptr inbounds nuw i8, ptr %0, i64 16
  store i32 0, ptr %6, align 8
  %7 = getelementptr inbounds nuw i8, ptr %0, i64 24
  tail call void @llvm.memset.p0.i64(ptr noundef nonnull align 8 dereferenceable(16) %7, i8 0, i64 16, i1 false)
  %8 = getelementptr inbounds nuw i8, ptr %0, i64 40
  store i32 1, ptr %8, align 8
  store ptr getelementptr inbounds nuw inrange(-16, 376) (i8, ptr @_ZTVN4llvm17JSONScopedPrinterE, i64 16), ptr %0, align 8
  %9 = getelementptr inbounds nuw i8, ptr %0, i64 48
  %10 = getelementptr inbounds nuw i8, ptr %0, i64 64
  tail call void @_ZN4llvm15SmallVectorBaseIjEC2EPvm(ptr noundef nonnull align 8 dereferenceable(80) %9, ptr noundef nonnull %10, i64 noundef 8) #11
  %11 = getelementptr inbounds nuw i8, ptr %0, i64 128
  %12 = select i1 %2, i32 2, i32 0
  tail call void @_ZN4llvm4json7OStreamC2ERNS_11raw_ostreamEj(ptr noundef nonnull align 8 dereferenceable(176) %11, ptr noundef nonnull align 8 dereferenceable(48) %1, i32 noundef %12)
  %13 = getelementptr inbounds nuw i8, ptr %0, i64 304
  %14 = load i64, ptr %3, align 8
  store i64 %14, ptr %13, align 8
  store ptr null, ptr %3, align 8
  %15 = load ptr, ptr %13, align 8
  %.not = icmp eq ptr %15, null
  br i1 %.not, label %20, label %16

16:                                               ; preds = %4
  %17 = load ptr, ptr %15, align 8
  %18 = getelementptr inbounds nuw i8, ptr %17, i64 16
  %19 = load ptr, ptr %18, align 8
  tail call void %19(ptr noundef nonnull align 8 dereferenceable(16) %15, ptr noundef nonnull align 8 dereferenceable(44) %0) #11
  br label %20

20:                                               ; preds = %16, %4
  ret void
}